target datalayout = "e-m:e-p270:32:32-p271:32:32-p272:64:64-i64:64-i128:128-f80:128-n8:16:32:64-S128"
target triple = "x86_64-pc-linux-gnu"

@.str.64 = private unnamed_addr constant [9 x i8] c"H5T_TIME\00", align 1
@.str.65 = private unnamed_addr constant [12 x i8] c"H5T_INTEGER\00", align 1
@.str.66 = private unnamed_addr constant [10 x i8] c"H5T_FLOAT\00", align 1
@.str.67 = private unnamed_addr constant [11 x i8] c"H5T_STRING\00", align 1
@.str.68 = private unnamed_addr constant [13 x i8] c"H5T_BITFIELD\00", align 1
@.str.69 = private unnamed_addr constant [11 x i8] c"H5T_OPAQUE\00", align 1
@.str.70 = private unnamed_addr constant [13 x i8] c"H5T_COMPOUND\00", align 1
@.str.71 = private unnamed_addr constant [14 x i8] c"H5T_REFERENCE\00", align 1
@.str.72 = private unnamed_addr constant [9 x i8] c"H5T_ENUM\00", align 1
@.str.73 = private unnamed_addr constant [9 x i8] c"H5T_VLEN\00", align 1
@.str.74 = private unnamed_addr constant [10 x i8] c"H5T_ARRAY\00", align 1
@.str.75 = private unnamed_addr constant [12 x i8] c"H5T_COMPLEX\00", align 1
@.str.76 = private unnamed_addr constant [14 x i8] c"Invalid class\00", align 1

; Function Attrs: nounwind willreturn memory(none) uwtable
define ptr @get_class(i32 noundef %0) #5 {
  %2 = alloca ptr, align 8
  %3 = alloca i32, align 4
  store i32 %0, ptr %3, align 4, !tbaa !3
  %4 = load i32, ptr %3, align 4, !tbaa !3
  switch i32 %4, label %18 [
    i32 2, label %5
    i32 0, label %6
    i32 1, label %7
    i32 3, label %8
    i32 4, label %9
    i32 5, label %10
    i32 6, label %11
    i32 7, label %12
    i32 8, label %13
    i32 9, label %14
    i32 10, label %15
    i32 11, label %16
    i32 -1, label %17
    i32 12, label %17
  ]

5:                                                ; preds = %1
  store ptr @.str.64, ptr %2, align 8
  br label %19

6:                                                ; preds = %1
  store ptr @.str.65, ptr %2, align 8
  br label %19

7:                                                ; preds = %1
  store ptr @.str.66, ptr %2, align 8
  br label %19

8:                                                ; preds = %1
  store ptr @.str.67, ptr %2, align 8
  br label %19

9:                                                ; preds = %1
  store ptr @.str.68, ptr %2, align 8
  br label %19

10:                                               ; preds = %1
  store ptr @.str.69, ptr %2, align 8
  br label %19

11:                                               ; preds = %1
  store ptr @.str.70, ptr %2, align 8
  br label %19

12:                                               ; preds = %1
  store ptr @.str.71, ptr %2, align 8
  br label %19

13:                                               ; preds = %1
  store ptr @.str.72, ptr %2, align 8
  br label %19

14:                                               ; preds = %1
  store ptr @.str.73, ptr %2, align 8
  br label %19

15:                                               ; preds = %1
  store ptr @.str.74, ptr %2, align 8
  br label %19

16:                                               ; preds = %1
  store ptr @.str.75, ptr %2, align 8
  br label %19

17:                                               ; preds = %1, %1
  br label %18

18:                                               ; preds = %1, %17
  store ptr @.str.76, ptr %2, align 8
  br label %19

19:                                               ; preds = %18, %16, %15, %14, %13, %12, %11, %10, %9, %8, %7, %6, %5
  %20 = load ptr, ptr %2, align 8
  ret ptr %20
}